target datalayout = "e-m:e-p270:32:32-p271:32:32-p272:64:64-i64:64-i128:128-f80:128-n8:16:32:64-S128"
target triple = "x86_64-pc-linux-gnu"

%struct._packet_info = type { ptr, ptr, i32, i32, %struct.nstime_t, %struct.nstime_t, %struct.nstime_t, i8, ptr, ptr, ptr, ptr, %struct._address, %struct._address, %struct._address, %struct._address, %struct._address, %struct._address, i32, ptr, i8, [3 x i8], %struct.anon, i32, i32, i32, i32, ptr, i8, ptr, ptr, i16, i16, i32, i32, i16, i32, i32, ptr, ptr, ptr, i8, i8, i16, i16, i16, i32, i16, i16, ptr, ptr, ptr, ptr, ptr, i32, i32 }
%struct.nstime_t = type { i64, i32 }
%struct._address = type { i32, i32, ptr, ptr }
%struct.anon = type { i8, [3 x i8] }

@hf_x25_calling_address_length = internal global i32 0, align 4
@hf_x25_called_address_length = internal global i32 0, align 4
@hf_x25_called_address = internal global i32 0, align 4
@hf_x25_calling_address = internal global i32 0, align 4

; Function Attrs: null_pointer_is_valid sspstrong uwtable
define internal void @x25_toa(ptr noundef %0, ptr noundef %1, ptr noundef %2, ptr noundef %3) #0 {
  %5 = alloca ptr, align 8
  %6 = alloca ptr, align 8
  %7 = alloca ptr, align 8
  %8 = alloca ptr, align 8
  %9 = alloca i32, align 4
  %10 = alloca i32, align 4
  %11 = alloca i32, align 4
  %12 = alloca ptr, align 8
  %13 = alloca ptr, align 8
  %14 = alloca ptr, align 8
  %15 = alloca ptr, align 8
  %16 = alloca i8, align 1
  %17 = alloca i32, align 4
  store ptr %0, ptr %5, align 8
  store ptr %1, ptr %6, align 8
  store ptr %2, ptr %7, align 8
  store ptr %3, ptr %8, align 8
  call void @llvm.lifetime.start.p0(i64 4, ptr %9) #6
  call void @llvm.lifetime.start.p0(i64 4, ptr %10) #6
  call void @llvm.lifetime.start.p0(i64 4, ptr %11) #6
  call void @llvm.lifetime.start.p0(i64 8, ptr %12) #6
  call void @llvm.lifetime.start.p0(i64 8, ptr %13) #6
  call void @llvm.lifetime.start.p0(i64 8, ptr %14) #6
  call void @llvm.lifetime.start.p0(i64 8, ptr %15) #6
  call void @llvm.lifetime.start.p0(i64 1, ptr %16) #6
  call void @llvm.lifetime.start.p0(i64 4, ptr %17) #6
  %18 = load ptr, ptr %8, align 8
  %19 = getelementptr inbounds nuw %struct._packet_info, ptr %18, i32 0, i32 51
  %20 = load ptr, ptr %19, align 8
  %21 = call noalias ptr @wmem_alloc(ptr noundef %20, i64 noundef 256) #7
  store ptr %21, ptr %12, align 8
  %22 = load ptr, ptr %8, align 8
  %23 = getelementptr inbounds nuw %struct._packet_info, ptr %22, i32 0, i32 51
  %24 = load ptr, ptr %23, align 8
  %25 = call noalias ptr @wmem_alloc(ptr noundef %24, i64 noundef 256) #7
  store ptr %25, ptr %13, align 8
  %26 = load ptr, ptr %7, align 8
  %27 = load ptr, ptr %6, align 8
  %28 = load i32, ptr %27, align 4
  %29 = call zeroext i8 @tvb_get_uint8(ptr noundef %26, i32 noundef %28)
  %30 = zext i8 %29 to i32
  store i32 %30, ptr %9, align 4
  %31 = load ptr, ptr %5, align 8
  %32 = load i32, ptr @hf_x25_called_address_length, align 4
  %33 = load ptr, ptr %7, align 8
  %34 = load ptr, ptr %6, align 8
  %35 = load i32, ptr %34, align 4
  %36 = call ptr @proto_tree_add_item(ptr noundef %31, i32 noundef %32, ptr noundef %33, i32 noundef %35, i32 noundef 1, i32 noundef 0)
  %37 = load ptr, ptr %6, align 8
  %38 = load i32, ptr %37, align 4
  %39 = add i32 %38, 1
  store i32 %39, ptr %37, align 4
  %40 = load ptr, ptr %7, align 8
  %41 = load ptr, ptr %6, align 8
  %42 = load i32, ptr %41, align 4
  %43 = call zeroext i8 @tvb_get_uint8(ptr noundef %40, i32 noundef %42)
  %44 = zext i8 %43 to i32
  store i32 %44, ptr %10, align 4
  %45 = load ptr, ptr %5, align 8
  %46 = load i32, ptr @hf_x25_calling_address_length, align 4
  %47 = load ptr, ptr %7, align 8
  %48 = load ptr, ptr %6, align 8
  %49 = load i32, ptr %48, align 4
  %50 = call ptr @proto_tree_add_item(ptr noundef %45, i32 noundef %46, ptr noundef %47, i32 noundef %49, i32 noundef 1, i32 noundef 0)
  %51 = load ptr, ptr %6, align 8
  %52 = load i32, ptr %51, align 4
  %53 = add i32 %52, 1
  store i32 %53, ptr %51, align 4
  %54 = load ptr, ptr %6, align 8
  %55 = load i32, ptr %54, align 4
  store i32 %55, ptr %17, align 4
  %56 = load ptr, ptr %7, align 8
  %57 = load i32, ptr %17, align 4
  %58 = call zeroext i8 @tvb_get_uint8(ptr noundef %56, i32 noundef %57)
  store i8 %58, ptr %16, align 1
  %59 = load ptr, ptr %12, align 8
  store ptr %59, ptr %14, align 8
  %60 = load ptr, ptr %13, align 8
  store ptr %60, ptr %15, align 8
  store i32 0, ptr %11, align 4
  br label %61

61:                                               ; preds = %128, %4
  %62 = load i32, ptr %11, align 4
  %63 = load i32, ptr %9, align 4
  %64 = load i32, ptr %10, align 4
  %65 = add i32 %63, %64
  %66 = icmp slt i32 %62, %65
  br i1 %66, label %67, label %131

67:                                               ; preds = %61
  %68 = load i32, ptr %11, align 4
  %69 = load i32, ptr %9, align 4
  %70 = icmp slt i32 %68, %69
  br i1 %70, label %71, label %99

71:                                               ; preds = %67
  %72 = load i32, ptr %11, align 4
  %73 = srem i32 %72, 2
  %74 = icmp ne i32 %73, 0
  br i1 %74, label %75, label %89

75:                                               ; preds = %71
  %76 = load i8, ptr %16, align 1
  %77 = zext i8 %76 to i32
  %78 = ashr i32 %77, 0
  %79 = and i32 %78, 15
  %80 = add i32 %79, 48
  %81 = trunc i32 %80 to i8
  %82 = load ptr, ptr %14, align 8
  %83 = getelementptr i8, ptr %82, i32 1
  store ptr %83, ptr %14, align 8
  store i8 %81, ptr %82, align 1
  %84 = load i32, ptr %17, align 4
  %85 = add i32 %84, 1
  store i32 %85, ptr %17, align 4
  %86 = load ptr, ptr %7, align 8
  %87 = load i32, ptr %17, align 4
  %88 = call zeroext i8 @tvb_get_uint8(ptr noundef %86, i32 noundef %87)
  store i8 %88, ptr %16, align 1
  br label %98

89:                                               ; preds = %71
  %90 = load i8, ptr %16, align 1
  %91 = zext i8 %90 to i32
  %92 = ashr i32 %91, 4
  %93 = and i32 %92, 15
  %94 = add i32 %93, 48
  %95 = trunc i32 %94 to i8
  %96 = load ptr, ptr %14, align 8
  %97 = getelementptr i8, ptr %96, i32 1
  store ptr %97, ptr %14, align 8
  store i8 %95, ptr %96, align 1
  br label %98

98:                                               ; preds = %89, %75
  br label %127

99:                                               ; preds = %67
  %100 = load i32, ptr %11, align 4
  %101 = srem i32 %100, 2
  %102 = icmp ne i32 %101, 0
  br i1 %102, label %103, label %117

103:                                              ; preds = %99
  %104 = load i8, ptr %16, align 1
  %105 = zext i8 %104 to i32
  %106 = ashr i32 %105, 0
  %107 = and i32 %106, 15
  %108 = add i32 %107, 48
  %109 = trunc i32 %108 to i8
  %110 = load ptr, ptr %15, align 8
  %111 = getelementptr i8, ptr %110, i32 1
  store ptr %111, ptr %15, align 8
  store i8 %109, ptr %110, align 1
  %112 = load i32, ptr %17, align 4
  %113 = add i32 %112, 1
  store i32 %113, ptr %17, align 4
  %114 = load ptr, ptr %7, align 8
  %115 = load i32, ptr %17, align 4
  %116 = call zeroext i8 @tvb_get_uint8(ptr noundef %114, i32 noundef %115)
  store i8 %116, ptr %16, align 1
  br label %126

117:                                              ; preds = %99
  %118 = load i8, ptr %16, align 1
  %119 = zext i8 %118 to i32
  %120 = ashr i32 %119, 4
  %121 = and i32 %120, 15
  %122 = add i32 %121, 48
  %123 = trunc i32 %122 to i8
  %124 = load ptr, ptr %15, align 8
  %125 = getelementptr i8, ptr %124, i32 1
  store ptr %125, ptr %15, align 8
  store i8 %123, ptr %124, align 1
  br label %126

126:                                              ; preds = %117, %103
  br label %127

127:                                              ; preds = %126, %98
  br label %128

128:                                              ; preds = %127
  %129 = load i32, ptr %11, align 4
  %130 = add i32 %129, 1
  store i32 %130, ptr %11, align 4
  br label %61, !llvm.loop !8

131:                                              ; preds = %61
  %132 = load ptr, ptr %14, align 8
  store i8 0, ptr %132, align 1
  %133 = load ptr, ptr %15, align 8
  store i8 0, ptr %133, align 1
  %134 = load i32, ptr %9, align 4
  %135 = icmp ne i32 %134, 0
  br i1 %135, label %136, label %151

136:                                              ; preds = %131
  %137 = load ptr, ptr %8, align 8
  %138 = getelementptr inbounds nuw %struct._packet_info, ptr %137, i32 0, i32 1
  %139 = load ptr, ptr %138, align 8
  %140 = load ptr, ptr %12, align 8
  call void @col_add_str(ptr noundef %139, i32 noundef 18, ptr noundef %140)
  %141 = load ptr, ptr %5, align 8
  %142 = load i32, ptr @hf_x25_called_address, align 4
  %143 = load ptr, ptr %7, align 8
  %144 = load ptr, ptr %6, align 8
  %145 = load i32, ptr %144, align 4
  %146 = load i32, ptr %9, align 4
  %147 = add i32 %146, 1
  %148 = sdiv i32 %147, 2
  %149 = load ptr, ptr %12, align 8
  %150 = call ptr @proto_tree_add_string(ptr noundef %141, i32 noundef %142, ptr noundef %143, i32 noundef %145, i32 noundef %148, ptr noundef %149)
  br label %151

151:                                              ; preds = %136, %131
  %152 = load i32, ptr %10, align 4
  %153 = icmp ne i32 %152, 0
  br i1 %153, label %154, label %180

154:                                              ; preds = %151
  %155 = load ptr, ptr %8, align 8
  %156 = getelementptr inbounds nuw %struct._packet_info, ptr %155, i32 0, i32 1
  %157 = load ptr, ptr %156, align 8
  %158 = load ptr, ptr %13, align 8
  call void @col_add_str(ptr noundef %157, i32 noundef 20, ptr noundef %158)
  %159 = load ptr, ptr %5, align 8
  %160 = load i32, ptr @hf_x25_calling_address, align 4
  %161 = load ptr, ptr %7, align 8
  %162 = load ptr, ptr %6, align 8
  %163 = load i32, ptr %162, align 4
  %164 = load i32, ptr %9, align 4
  %165 = sdiv i32 %164, 2
  %166 = add i32 %163, %165
  %167 = load i32, ptr %10, align 4
  %168 = add i32 %167, 1
  %169 = sdiv i32 %168, 2
  %170 = load i32, ptr %9, align 4
  %171 = srem i32 %170, 2
  %172 = load i32, ptr %10, align 4
  %173 = add i32 %172, 1
  %174 = srem i32 %173, 2
  %175 = add i32 %171, %174
  %176 = sdiv i32 %175, 2
  %177 = add i32 %169, %176
  %178 = load ptr, ptr %13, align 8
  %179 = call ptr @proto_tree_add_string(ptr noundef %159, i32 noundef %160, ptr noundef %161, i32 noundef %166, i32 noundef %177, ptr noundef %178)
  br label %180

180:                                              ; preds = %154, %151
  %181 = load i32, ptr %9, align 4
  %182 = load i32, ptr %10, align 4
  %183 = add i32 %181, %182
  %184 = add i32 %183, 1
  %185 = sdiv i32 %184, 2
  %186 = load ptr, ptr %6, align 8
  %187 = load i32, ptr %186, align 4
  %188 = add i32 %187, %185
  store i32 %188, ptr %186, align 4
  call void @llvm.lifetime.end.p0(i64 4, ptr %17) #6
  call void @llvm.lifetime.end.p0(i64 1, ptr %16) #6
  call void @llvm.lifetime.end.p0(i64 8, ptr %15) #6
  call void @llvm.lifetime.end.p0(i64 8, ptr %14) #6
  call void @llvm.lifetime.end.p0(i64 8, ptr %13) #6
  call void @llvm.lifetime.end.p0(i64 8, ptr %12) #6
  call void @llvm.lifetime.end.p0(i64 4, ptr %11) #6
  call void @llvm.lifetime.end.p0(i64 4, ptr %10) #6
  call void @llvm.lifetime.end.p0(i64 4, ptr %9) #6
  ret void
}