; Function Attrs: null_pointer_is_valid sspstrong uwtable
define internal fastcc void @x25_toa(ptr noundef %0, ptr noundef captures(none) %1, ptr noundef %2, ptr noundef readonly captures(none) %3) unnamed_addr #0 {
  %5 = getelementptr inbounds nuw i8, ptr %3, i64 408
  %6 = load ptr, ptr %5, align 8
  %7 = tail call noalias dereferenceable_or_null(256) ptr @wmem_alloc(ptr noundef %6, i64 noundef 256) #8
  %8 = load ptr, ptr %5, align 8
  %9 = tail call noalias dereferenceable_or_null(256) ptr @wmem_alloc(ptr noundef %8, i64 noundef 256) #8
  %10 = load i32, ptr %1, align 4
  %11 = tail call zeroext i8 @tvb_get_uint8(ptr noundef %2, i32 noundef %10)
  %12 = zext i8 %11 to i32
  %13 = load i32, ptr @hf_x25_called_address_length, align 4
  %14 = load i32, ptr %1, align 4
  %15 = tail call ptr @proto_tree_add_item(ptr noundef %0, i32 noundef %13, ptr noundef %2, i32 noundef %14, i32 noundef 1, i32 noundef 0)
  %16 = load i32, ptr %1, align 4
  %17 = add i32 %16, 1
  store i32 %17, ptr %1, align 4
  %18 = tail call zeroext i8 @tvb_get_uint8(ptr noundef %2, i32 noundef %17)
  %19 = zext i8 %18 to i32
  %20 = load i32, ptr @hf_x25_calling_address_length, align 4
  %21 = load i32, ptr %1, align 4
  %22 = tail call ptr @proto_tree_add_item(ptr noundef %0, i32 noundef %20, ptr noundef %2, i32 noundef %21, i32 noundef 1, i32 noundef 0)
  %23 = load i32, ptr %1, align 4
  %24 = add i32 %23, 1
  store i32 %24, ptr %1, align 4
  %25 = tail call zeroext i8 @tvb_get_uint8(ptr noundef %2, i32 noundef %24)
  %26 = add nuw nsw i32 %19, %12
  %.not84 = icmp eq i32 %26, 0
  br i1 %.not84, label %._crit_edge, label %.lr.ph

.lr.ph:                                           ; preds = %4, %49
  %.081 = phi i32 [ %.1, %49 ], [ %24, %4 ]
  %.06480 = phi i8 [ %.165, %49 ], [ %25, %4 ]
  %.06679 = phi ptr [ %.167, %49 ], [ %9, %4 ]
  %.06878 = phi ptr [ %.169, %49 ], [ %7, %4 ]
  %.07077 = phi i32 [ %50, %49 ], [ 0, %4 ]
  %27 = icmp samesign ult i32 %.07077, %12
  %28 = and i32 %.07077, 1
  %.not76 = icmp eq i32 %28, 0
  br i1 %27, label %29, label %39

29:                                               ; preds = %.lr.ph
  %30 = getelementptr i8, ptr %.06878, i64 1
  br i1 %.not76, label %36, label %31

31:                                               ; preds = %29
  %32 = and i8 %.06480, 15
  %33 = or disjoint i8 %32, 48
  store i8 %33, ptr %.06878, align 1
  %34 = add i32 %.081, 1
  %35 = tail call zeroext i8 @tvb_get_uint8(ptr noundef %2, i32 noundef %34)
  br label %49

36:                                               ; preds = %29
  %37 = lshr i8 %.06480, 4
  %38 = or disjoint i8 %37, 48
  store i8 %38, ptr %.06878, align 1
  br label %49

39:                                               ; preds = %.lr.ph
  %40 = getelementptr i8, ptr %.06679, i64 1
  br i1 %.not76, label %46, label %41

41:                                               ; preds = %39
  %42 = and i8 %.06480, 15
  %43 = or disjoint i8 %42, 48
  store i8 %43, ptr %.06679, align 1
  %44 = add i32 %.081, 1
  %45 = tail call zeroext i8 @tvb_get_uint8(ptr noundef %2, i32 noundef %44)
  br label %49

46:                                               ; preds = %39
  %47 = lshr i8 %.06480, 4
  %48 = or disjoint i8 %47, 48
  store i8 %48, ptr %.06679, align 1
  br label %49

49:                                               ; preds = %36, %31, %46, %41
  %.169 = phi ptr [ %30, %31 ], [ %30, %36 ], [ %.06878, %41 ], [ %.06878, %46 ]
  %.167 = phi ptr [ %.06679, %31 ], [ %.06679, %36 ], [ %40, %41 ], [ %40, %46 ]
  %.165 = phi i8 [ %35, %31 ], [ %.06480, %36 ], [ %45, %41 ], [ %.06480, %46 ]
  %.1 = phi i32 [ %34, %31 ], [ %.081, %36 ], [ %44, %41 ], [ %.081, %46 ]
  %50 = add nuw nsw i32 %.07077, 1
  %exitcond.not = icmp eq i32 %50, %26
  br i1 %exitcond.not, label %._crit_edge, label %.lr.ph, !llvm.loop !8

._crit_edge:                                      ; preds = %49, %4
  %.068.lcssa = phi ptr [ %7, %4 ], [ %.169, %49 ]
  %.066.lcssa = phi ptr [ %9, %4 ], [ %.167, %49 ]
  store i8 0, ptr %.068.lcssa, align 1
  store i8 0, ptr %.066.lcssa, align 1
  %.not = icmp eq i8 %11, 0
  br i1 %.not, label %59, label %51

51:                                               ; preds = %._crit_edge
  %52 = getelementptr inbounds nuw i8, ptr %3, i64 8
  %53 = load ptr, ptr %52, align 8
  tail call void @col_add_str(ptr noundef %53, i32 noundef 18, ptr noundef %7)
  %54 = load i32, ptr @hf_x25_called_address, align 4
  %55 = load i32, ptr %1, align 4
  %56 = add nuw nsw i32 %12, 1
  %57 = lshr i32 %56, 1
  %58 = tail call ptr @proto_tree_add_string(ptr noundef %0, i32 noundef %54, ptr noundef %2, i32 noundef %55, i32 noundef %57, ptr noundef %7)
  br label %59

59:                                               ; preds = %51, %._crit_edge
  %.not74 = icmp eq i8 %18, 0
  br i1 %.not74, label %73, label %60

60:                                               ; preds = %59
  %61 = getelementptr inbounds nuw i8, ptr %3, i64 8
  %62 = load ptr, ptr %61, align 8
  tail call void @col_add_str(ptr noundef %62, i32 noundef 20, ptr noundef %9)
  %63 = load i32, ptr @hf_x25_calling_address, align 4
  %64 = load i32, ptr %1, align 4
  %65 = lshr i32 %12, 1
  %66 = add i32 %64, %65
  %67 = add nuw nsw i32 %19, 1
  %68 = lshr i32 %67, 1
  %69 = and i32 %12, 1
  %70 = and i32 %69, %67
  %71 = add nuw nsw i32 %70, %68
  %72 = tail call ptr @proto_tree_add_string(ptr noundef %0, i32 noundef %63, ptr noundef %2, i32 noundef %66, i32 noundef %71, ptr noundef %9)
  br label %73

73:                                               ; preds = %60, %59
  %74 = add nuw nsw i32 %26, 1
  %75 = lshr i32 %74, 1
  %76 = load i32, ptr %1, align 4
  %77 = add i32 %76, %75
  store i32 %77, ptr %1, align 4
  ret void
}